; Function Attrs: mustprogress uwtable
define hidden void @_ZN7datalog7context24get_background_assertionEv(ptr noalias nocapture writeonly sret(%class.obj_ref) align 8 %agg.result, ptr nocapture noundef nonnull readonly align 8 dereferenceable(3556) %this) local_unnamed_addr #3 align 2 {
entry:
  %m_background = getelementptr inbounds i8, ptr %this, i64 3464
  tail call void @llvm.experimental.noalias.scope.decl(metadata !30)
  %0 = load ptr, ptr %m_background, align 8, !noalias !30
  %m_nodes.i.i = getelementptr inbounds i8, ptr %this, i64 3472
  %1 = load ptr, ptr %m_nodes.i.i, align 8, !noalias !30
  %cmp.i.i.i = icmp eq ptr %1, null
  br i1 %cmp.i.i.i, label %_ZNK15ref_vector_coreI4expr19ref_manager_wrapperIS0_11ast_managerEE4sizeEv.exit.i, label %if.end.i.i.i

if.end.i.i.i:                                     ; preds = %entry
  %arrayidx.i.i.i = getelementptr inbounds i8, ptr %1, i64 -4
  %2 = load i32, ptr %arrayidx.i.i.i, align 4, !noalias !30
  br label %_ZNK15ref_vector_coreI4expr19ref_manager_wrapperIS0_11ast_managerEE4sizeEv.exit.i

_ZNK15ref_vector_coreI4expr19ref_manager_wrapperIS0_11ast_managerEE4sizeEv.exit.i: ; preds = %if.end.i.i.i, %entry
  %retval.0.i.i.i = phi i32 [ %2, %if.end.i.i.i ], [ 0, %entry ]
  %call3.i = tail call noundef ptr @_Z6mk_andR11ast_managerjPKP4expr(ptr noundef nonnull align 8 dereferenceable(976) %0, i32 noundef %retval.0.i.i.i, ptr noundef %1), !noalias !30
  %3 = load ptr, ptr %m_background, align 8, !noalias !30
  store ptr %call3.i, ptr %agg.result, align 8, !alias.scope !30
  %m_manager.i.i = getelementptr inbounds i8, ptr %agg.result, i64 8
  store ptr %3, ptr %m_manager.i.i, align 8, !alias.scope !30
  %tobool.not.i.i.i = icmp eq ptr %call3.i, null
  br i1 %tobool.not.i.i.i, label %_Z6mk_andRK10ref_vectorI4expr11ast_managerE.exit, label %_ZN11ast_manager7inc_refEP3ast.exit.i.i.i

_ZN11ast_manager7inc_refEP3ast.exit.i.i.i:        ; preds = %_ZNK15ref_vector_coreI4expr19ref_manager_wrapperIS0_11ast_managerEE4sizeEv.exit.i
  %m_ref_count.i.i.i.i.i = getelementptr inbounds i8, ptr %call3.i, i64 8
  %4 = load i32, ptr %m_ref_count.i.i.i.i.i, align 4, !noalias !30
  %inc.i.i.i.i.i = add i32 %4, 1
  store i32 %inc.i.i.i.i.i, ptr %m_ref_count.i.i.i.i.i, align 4, !noalias !30
  br label %_Z6mk_andRK10ref_vectorI4expr11ast_managerE.exit

_Z6mk_andRK10ref_vectorI4expr11ast_managerE.exit: ; preds = %_ZNK15ref_vector_coreI4expr19ref_manager_wrapperIS0_11ast_managerEE4sizeEv.exit.i, %_ZN11ast_manager7inc_refEP3ast.exit.i.i.i
  ret void
}